; Function Attrs: null_pointer_is_valid sspstrong uwtable
define internal fastcc void @decode_GIAS_SubmitQueryRequest_complete_XML_results(ptr noundef %0, ptr noundef %1, ptr noundef %2, ptr noundef %3, ptr noundef %4, ptr noundef readonly captures(none) %5, i1 noundef zeroext %6) unnamed_addr #0 {
  %8 = getelementptr inbounds nuw i8, ptr %5, i64 7
  %9 = load i8, ptr %8, align 1
  switch i8 %9, label %22 [
    i8 0, label %25
    i8 1, label %10
  ]

10:                                               ; preds = %7
  %11 = getelementptr inbounds nuw i8, ptr %5, i64 16
  %12 = load i32, ptr %11, align 8
  switch i32 %12, label %20 [
    i32 0, label %13
    i32 1, label %25
  ]

13:                                               ; preds = %10
  %14 = tail call i32 @get_CDR_enum(ptr noundef %0, ptr noundef %4, i1 noundef zeroext %6, i32 noundef 12)
  %15 = load i32, ptr @hf_GIAS_SubmitQueryRequest_complete_XML_results_return, align 4
  %16 = load i32, ptr %4, align 4
  %17 = add i32 %16, -4
  %18 = tail call ptr @proto_tree_add_uint(ptr noundef %2, i32 noundef %15, ptr noundef %0, i32 noundef %17, i32 noundef 4, i32 noundef %14)
  %19 = load i32, ptr @hf_GIAS_SubmitQueryRequest_complete_XML_results_results, align 4
  tail call void @giop_add_CDR_string(ptr noundef %2, ptr noundef %0, ptr noundef %4, i1 noundef zeroext %6, i32 noundef 12, i32 noundef %19)
  br label %25

20:                                               ; preds = %10
  %21 = tail call ptr (ptr, ptr, ptr, ptr, ...) @expert_add_info_format(ptr noundef %1, ptr noundef %3, ptr noundef nonnull @ei_gias_unknown_exception, ptr noundef nonnull @.str.826, i32 noundef %12)
  br label %25

22:                                               ; preds = %7
  %23 = zext i8 %9 to i32
  %24 = tail call ptr (ptr, ptr, ptr, ptr, ...) @expert_add_info_format(ptr noundef %1, ptr noundef %3, ptr noundef nonnull @ei_gias_unknown_giop_msg, ptr noundef nonnull @.str.827, i32 noundef %23)
  br label %25

25:                                               ; preds = %10, %13, %20, %22, %7
  ret void
}